target datalayout = "e-m:e-p270:32:32-p271:32:32-p272:64:64-i64:64-i128:128-f80:128-n8:16:32:64-S128"
target triple = "x86_64-pc-linux-gnu"

%struct.PJconsts = type { ptr, ptr, ptr, ptr, ptr, ptr, ptr, ptr, ptr, ptr, ptr, ptr, i32, ptr, ptr, ptr, ptr, ptr, ptr, ptr, ptr, double, double, double, double, double, double, double, double, double, double, double, double, double, double, double, double, double, double, double, double, double, double, i32, i32, i32, i32, i32, i32, i32, i32, i32, i32, i32, ptr, ptr, ptr, ptr, ptr, ptr, double, double, double, double, double, double, double, double, double, double, double, i32, [7 x double], i32, ptr, ptr, double, double, i32, [4 x i8], %"class.std::shared_ptr", i8, double, i8, %"class.std::__cxx11::basic_string", %"class.std::__cxx11::basic_string", %"class.std::__cxx11::basic_string", i8, %"class.std::vector", i32, %"class.std::vector.3", i32, i8, i8, i8, ptr }
%"class.std::shared_ptr" = type { %"class.std::__shared_ptr" }
%"class.std::__shared_ptr" = type { ptr, %"class.std::__shared_count" }
%"class.std::__shared_count" = type { ptr }
%"class.std::__cxx11::basic_string" = type { %"struct.std::__cxx11::basic_string<char>::_Alloc_hider", i64, %union.anon }
%"struct.std::__cxx11::basic_string<char>::_Alloc_hider" = type { ptr }
%union.anon = type { i64, [8 x i8] }
%"class.std::vector" = type { %"struct.std::_Vector_base" }
%"struct.std::_Vector_base" = type { %"struct.std::_Vector_base<osgeo::proj::operation::GridDescription, std::allocator<osgeo::proj::operation::GridDescription>>::_Vector_impl" }
%"struct.std::_Vector_base<osgeo::proj::operation::GridDescription, std::allocator<osgeo::proj::operation::GridDescription>>::_Vector_impl" = type { %"struct.std::_Vector_base<osgeo::proj::operation::GridDescription, std::allocator<osgeo::proj::operation::GridDescription>>::_Vector_impl_data" }
%"struct.std::_Vector_base<osgeo::proj::operation::GridDescription, std::allocator<osgeo::proj::operation::GridDescription>>::_Vector_impl_data" = type { ptr, ptr, ptr }
%"class.std::vector.3" = type { %"struct.std::_Vector_base.4" }
%"struct.std::_Vector_base.4" = type { %"struct.std::_Vector_base<PJCoordOperation, std::allocator<PJCoordOperation>>::_Vector_impl" }
%"struct.std::_Vector_base<PJCoordOperation, std::allocator<PJCoordOperation>>::_Vector_impl" = type { %"struct.std::_Vector_base<PJCoordOperation, std::allocator<PJCoordOperation>>::_Vector_impl_data" }
%"struct.std::_Vector_base<PJCoordOperation, std::allocator<PJCoordOperation>>::_Vector_impl_data" = type { ptr, ptr, ptr }
%struct.PJ_LP = type { double, double }
%struct.PJ_XY = type { double, double }

; Function Attrs: mustprogress uwtable
define internal { double, double } @_ZL17calcofi_e_forward5PJ_LPP8PJconsts(double %0, double %1, ptr noundef %2) #0 {
  %4 = alloca %struct.PJ_XY, align 8
  %5 = alloca %struct.PJ_LP, align 8
  %6 = alloca ptr, align 8
  %7 = alloca double, align 8
  %8 = alloca double, align 8
  %9 = alloca double, align 8
  %10 = alloca double, align 8
  %11 = alloca i32, align 4
  %12 = getelementptr inbounds nuw { double, double }, ptr %5, i32 0, i32 0
  store double %0, ptr %12, align 8
  %13 = getelementptr inbounds nuw { double, double }, ptr %5, i32 0, i32 1
  store double %1, ptr %13, align 8
  store ptr %2, ptr %6, align 8, !tbaa !3
  call void @llvm.memset.p0.i64(ptr align 8 %4, i8 0, i64 16, i1 false)
  call void @llvm.lifetime.start.p0(i64 8, ptr %7) #7
  call void @llvm.lifetime.start.p0(i64 8, ptr %8) #7
  call void @llvm.lifetime.start.p0(i64 8, ptr %9) #7
  call void @llvm.lifetime.start.p0(i64 8, ptr %10) #7
  %14 = getelementptr inbounds nuw %struct.PJ_LP, ptr %5, i32 0, i32 1
  %15 = load double, ptr %14, align 8, !tbaa !56
  %16 = call double @llvm.fabs.f64(double %15)
  %17 = fsub double %16, 0x3FF921FB54442D18
  %18 = call double @llvm.fabs.f64(double %17)
  %19 = fcmp ole double %18, 1.000000e-10
  br i1 %19, label %20, label %23

20:                                               ; preds = %3
  %21 = load ptr, ptr %6, align 8, !tbaa !3
  %22 = call i32 @proj_errno_set(ptr noundef %21, i32 noundef 2050)
  store i32 1, ptr %11, align 4
  br label %93

23:                                               ; preds = %3
  %24 = getelementptr inbounds nuw %struct.PJ_LP, ptr %5, i32 0, i32 0
  %25 = load double, ptr %24, align 8, !tbaa !59
  %26 = getelementptr inbounds nuw %struct.PJ_XY, ptr %4, i32 0, i32 0
  store double %25, ptr %26, align 8, !tbaa !51
  %27 = getelementptr inbounds nuw %struct.PJ_LP, ptr %5, i32 0, i32 1
  %28 = load double, ptr %27, align 8, !tbaa !56
  %29 = getelementptr inbounds nuw %struct.PJ_LP, ptr %5, i32 0, i32 1
  %30 = load double, ptr %29, align 8, !tbaa !56
  %31 = call double @sin(double noundef %30) #7, !tbaa !53
  %32 = load ptr, ptr %6, align 8, !tbaa !3
  %33 = getelementptr inbounds nuw %struct.PJconsts, ptr %32, i32 0, i32 26
  %34 = load double, ptr %33, align 8, !tbaa !58
  %35 = call noundef double @_Z7pj_tsfnddd(double noundef %28, double noundef %31, double noundef %34)
  %36 = call double @log(double noundef %35) #7, !tbaa !53
  %37 = fneg double %36
  %38 = getelementptr inbounds nuw %struct.PJ_XY, ptr %4, i32 0, i32 1
  store double %37, ptr %38, align 8, !tbaa !55
  %39 = call double @sin(double noundef 0x3FE312AD613A9096) #7, !tbaa !53
  %40 = load ptr, ptr %6, align 8, !tbaa !3
  %41 = getelementptr inbounds nuw %struct.PJconsts, ptr %40, i32 0, i32 26
  %42 = load double, ptr %41, align 8, !tbaa !58
  %43 = call noundef double @_Z7pj_tsfnddd(double noundef 0x3FE312AD613A9096, double noundef %39, double noundef %42)
  %44 = call double @log(double noundef %43) #7, !tbaa !53
  %45 = fneg double %44
  store double %45, ptr %7, align 8, !tbaa !54
  %46 = getelementptr inbounds nuw %struct.PJ_XY, ptr %4, i32 0, i32 1
  %47 = load double, ptr %46, align 8, !tbaa !55
  %48 = load double, ptr %7, align 8, !tbaa !54
  %49 = fsub double %47, %48
  %50 = call double @tan(double noundef 0x3FE0C152382D7365) #7, !tbaa !53
  %51 = fmul double %49, %50
  store double %51, ptr %8, align 8, !tbaa !54
  %52 = getelementptr inbounds nuw %struct.PJ_XY, ptr %4, i32 0, i32 0
  %53 = load double, ptr %52, align 8, !tbaa !51
  %54 = fneg double %53
  %55 = load double, ptr %8, align 8, !tbaa !54
  %56 = fsub double %54, %55
  %57 = fadd double %56, 0xC000EA6D5AA2CB02
  store double %57, ptr %9, align 8, !tbaa !54
  %58 = load double, ptr %9, align 8, !tbaa !54
  %59 = call double @cos(double noundef 0x3FE0C152382D7365) #7, !tbaa !53
  %60 = fmul double %58, %59
  %61 = call double @sin(double noundef 0x3FE0C152382D7365) #7, !tbaa !53
  %62 = getelementptr inbounds nuw %struct.PJ_XY, ptr %4, i32 0, i32 1
  %63 = load double, ptr %62, align 8, !tbaa !55
  %64 = call double @llvm.fmuladd.f64(double %60, double %61, double %63)
  store double %64, ptr %10, align 8, !tbaa !54
  %65 = load ptr, ptr %6, align 8, !tbaa !3
  %66 = getelementptr inbounds nuw %struct.PJconsts, ptr %65, i32 0, i32 0
  %67 = load ptr, ptr %66, align 8, !tbaa !60
  %68 = load double, ptr %10, align 8, !tbaa !54
  %69 = fneg double %68
  %70 = call double @exp(double noundef %69) #7, !tbaa !53
  %71 = load ptr, ptr %6, align 8, !tbaa !3
  %72 = getelementptr inbounds nuw %struct.PJconsts, ptr %71, i32 0, i32 26
  %73 = load double, ptr %72, align 8, !tbaa !58
  %74 = call noundef double @_Z7pj_phi2P6pj_ctxdd(ptr noundef %67, double noundef %70, double noundef %73)
  store double %74, ptr %10, align 8, !tbaa !54
  %75 = load double, ptr %10, align 8, !tbaa !54
  %76 = fsub double %75, 0x3FE312AD613A9096
  %77 = fmul double 0x404CA5DC1A63C1F8, %76
  %78 = fmul double %77, 5.000000e+00
  %79 = call double @cos(double noundef 0x3FE0C152382D7365) #7, !tbaa !53
  %80 = fdiv double %78, %79
  %81 = fsub double 8.000000e+01, %80
  %82 = getelementptr inbounds nuw %struct.PJ_XY, ptr %4, i32 0, i32 0
  store double %81, ptr %82, align 8, !tbaa !51
  %83 = load double, ptr %10, align 8, !tbaa !54
  %84 = getelementptr inbounds nuw %struct.PJ_LP, ptr %5, i32 0, i32 1
  %85 = load double, ptr %84, align 8, !tbaa !56
  %86 = fsub double %83, %85
  %87 = fmul double 0x404CA5DC1A63C1F8, %86
  %88 = fmul double %87, 1.500000e+01
  %89 = call double @sin(double noundef 0x3FE0C152382D7365) #7, !tbaa !53
  %90 = fdiv double %88, %89
  %91 = fadd double 6.000000e+01, %90
  %92 = getelementptr inbounds nuw %struct.PJ_XY, ptr %4, i32 0, i32 1
  store double %91, ptr %92, align 8, !tbaa !55
  store i32 1, ptr %11, align 4
  br label %93

93:                                               ; preds = %23, %20
  call void @llvm.lifetime.end.p0(i64 8, ptr %10) #7
  call void @llvm.lifetime.end.p0(i64 8, ptr %9) #7
  call void @llvm.lifetime.end.p0(i64 8, ptr %8) #7
  call void @llvm.lifetime.end.p0(i64 8, ptr %7) #7
  %94 = load { double, double }, ptr %4, align 8
  ret { double, double } %94
}