; Function Attrs: mustprogress uwtable
define internal { double, double } @_ZL17calcofi_e_forward5PJ_LPP8PJconsts(double %0, double %1, ptr noundef %2) #0 {
  %4 = tail call double @llvm.fabs.f64(double %1)
  %5 = fadd double %4, 0xBFF921FB54442D18
  %6 = tail call double @llvm.fabs.f64(double %5)
  %7 = fcmp ugt double %6, 1.000000e-10
  br i1 %7, label %10, label %8

8:                                                ; preds = %3
  %9 = tail call i32 @proj_errno_set(ptr noundef %2, i32 noundef 2050)
  br label %42

10:                                               ; preds = %3
  %11 = tail call double @sin(double noundef %1) #7, !tbaa !49
  %12 = getelementptr inbounds nuw i8, ptr %2, i64 208
  %13 = load double, ptr %12, align 8, !tbaa !48
  %14 = tail call noundef double @_Z7pj_tsfnddd(double noundef %1, double noundef %11, double noundef %13)
  %15 = tail call double @log(double noundef %14) #7, !tbaa !49
  %16 = fneg double %15
  %17 = load double, ptr %12, align 8, !tbaa !48
  %18 = tail call noundef double @_Z7pj_tsfnddd(double noundef 0x3FE312AD613A9096, double noundef 0x3FE1F6AC2EC1D6AD, double noundef %17)
  %19 = tail call double @log(double noundef %18) #7, !tbaa !49
  %20 = fsub double %19, %15
  %21 = fmul double %20, 0x3FE279A74590331C
  %22 = fneg double %0
  %23 = fsub double %22, %21
  %24 = fadd double %23, 0xC000EA6D5AA2CB02
  %25 = fmul double %24, 0x3FEBB67AE8584CAB
  %26 = tail call double @llvm.fmuladd.f64(double %25, double 0x3FDFFFFFFFFFFFFF, double %16)
  %27 = load ptr, ptr %2, align 8, !tbaa !50
  %28 = fneg double %26
  %29 = tail call double @exp(double noundef %28) #7, !tbaa !49
  %30 = load double, ptr %12, align 8, !tbaa !48
  %31 = tail call noundef double @_Z7pj_phi2P6pj_ctxdd(ptr noundef %27, double noundef %29, double noundef %30)
  %32 = fadd double %31, 0xBFE312AD613A9096
  %33 = fmul double %32, 0x404CA5DC1A63C1F8
  %34 = fmul double %33, 5.000000e+00
  %35 = fdiv double %34, 0x3FEBB67AE8584CAB
  %36 = fsub double 8.000000e+01, %35
  %37 = fsub double %31, %1
  %38 = fmul double %37, 0x404CA5DC1A63C1F8
  %39 = fmul double %38, 1.500000e+01
  %40 = fdiv double %39, 0x3FDFFFFFFFFFFFFF
  %41 = fadd double %40, 6.000000e+01
  br label %42

42:                                               ; preds = %10, %8
  %.sroa.5.0 = phi double [ 0.000000e+00, %8 ], [ %41, %10 ]
  %.sroa.014.0 = phi double [ 0.000000e+00, %8 ], [ %36, %10 ]
  %.fca.0.insert = insertvalue { double, double } poison, double %.sroa.014.0, 0
  %.fca.1.insert = insertvalue { double, double } %.fca.0.insert, double %.sroa.5.0, 1
  ret { double, double } %.fca.1.insert
}